target datalayout = "e-m:e-p270:32:32-p271:32:32-p272:64:64-i64:64-i128:128-f80:128-n8:16:32:64-S128"
target triple = "x86_64-pc-linux-gnu"

@proxy_v2_magic = internal constant [12 x i8] c"\0D\0A\0D\0A\00\0D\0AQUIT\0A", align 1

; Function Attrs: null_pointer_is_valid sspstrong uwtable
define internal zeroext i1 @is_proxy_v2(ptr noundef %0) #0 {
  %2 = alloca i1, align 1
  %3 = alloca ptr, align 8
  %4 = alloca i32, align 4
  %5 = alloca i32, align 4
  %6 = alloca i32, align 4
  store ptr %0, ptr %3, align 8
  call void @llvm.lifetime.start.p0(i64 4, ptr %4) #10
  store i32 0, ptr %4, align 4
  call void @llvm.lifetime.start.p0(i64 4, ptr %5) #10
  %7 = load ptr, ptr %3, align 8
  %8 = call i32 @tvb_reported_length(ptr noundef %7)
  store i32 %8, ptr %5, align 4
  %9 = load i32, ptr %5, align 4
  %10 = icmp slt i32 %9, 16
  br i1 %10, label %11, label %12

11:                                               ; preds = %1
  store i1 false, ptr %2, align 1
  store i32 1, ptr %6, align 4
  br label %19

12:                                               ; preds = %1
  %13 = load ptr, ptr %3, align 8
  %14 = load i32, ptr %4, align 4
  %15 = call i32 @tvb_memeql(ptr noundef %13, i32 noundef %14, ptr noundef @proxy_v2_magic, i64 noundef 12)
  %16 = icmp ne i32 %15, 0
  br i1 %16, label %17, label %18

17:                                               ; preds = %12
  store i1 false, ptr %2, align 1
  store i32 1, ptr %6, align 4
  br label %19

18:                                               ; preds = %12
  store i1 true, ptr %2, align 1
  store i32 1, ptr %6, align 4
  br label %19

19:                                               ; preds = %18, %17, %11
  call void @llvm.lifetime.end.p0(i64 4, ptr %5) #10
  call void @llvm.lifetime.end.p0(i64 4, ptr %4) #10
  %20 = load i1, ptr %2, align 1
  ret i1 %20
}

; Function Attrs: null_pointer_is_valid sspstrong uwtable
define internal zeroext i1 @dissect_proxy_heur_udp(ptr noundef %0, ptr noundef %1, ptr noundef %2, ptr noundef %3) #0 {
  %5 = alloca i1, align 1
  %6 = alloca ptr, align 8
  %7 = alloca ptr, align 8
  %8 = alloca ptr, align 8
  %9 = alloca ptr, align 8
  %10 = alloca i32, align 4
  %11 = alloca i32, align 4
  store ptr %0, ptr %6, align 8
  store ptr %1, ptr %7, align 8
  store ptr %2, ptr %8, align 8
  store ptr %3, ptr %9, align 8
  call void @llvm.lifetime.start.p0(i64 4, ptr %10) #10
  %12 = load ptr, ptr %6, align 8
  %13 = call zeroext i1 @is_proxy_v2(ptr noundef %12)
  br i1 %13, label %14, label %35

14:                                               ; preds = %4
  %15 = load ptr, ptr %6, align 8
  %16 = load ptr, ptr %7, align 8
  %17 = load ptr, ptr %8, align 8
  %18 = load ptr, ptr %9, align 8
  %19 = call i32 @dissect_proxy_v2(ptr noundef %15, ptr noundef %16, ptr noundef %17, ptr noundef %18)
  store i32 %19, ptr %10, align 4
  %20 = load i32, ptr %10, align 4
  %21 = icmp ne i32 %20, 0
  br i1 %21, label %22, label %34

22:                                               ; preds = %14
  %23 = load ptr, ptr %6, align 8
  %24 = load i32, ptr %10, align 4
  %25 = call i32 @tvb_reported_length_remaining(ptr noundef %23, i32 noundef %24)
  %26 = icmp ne i32 %25, 0
  br i1 %26, label %27, label %34

27:                                               ; preds = %22
  %28 = load ptr, ptr %6, align 8
  %29 = load ptr, ptr %7, align 8
  %30 = load ptr, ptr %8, align 8
  %31 = load i32, ptr %10, align 4
  %32 = load ptr, ptr %9, align 8
  %33 = call i32 @dissect_proxy_proxied(ptr noundef %28, ptr noundef %29, ptr noundef %30, i32 noundef %31, ptr noundef %32, ptr noundef null)
  br label %34

34:                                               ; preds = %27, %22, %14
  store i1 true, ptr %5, align 1
  store i32 1, ptr %11, align 4
  br label %36

35:                                               ; preds = %4
  store i1 false, ptr %5, align 1
  store i32 1, ptr %11, align 4
  br label %36

36:                                               ; preds = %35, %34
  call void @llvm.lifetime.end.p0(i64 4, ptr %10) #10
  %37 = load i1, ptr %5, align 1
  ret i1 %37
}