; Function Attrs: null_pointer_is_valid sspstrong uwtable
define internal noundef zeroext i1 @dissect_proxy_heur_udp(ptr noundef %0, ptr noundef %1, ptr noundef %2, ptr noundef %3) #0 {
  %5 = tail call i32 @tvb_reported_length(ptr noundef %0)
  %6 = icmp slt i32 %5, 16
  br i1 %6, label %is_proxy_v2.exit.thread, label %is_proxy_v2.exit

is_proxy_v2.exit:                                 ; preds = %4
  %7 = tail call i32 @tvb_memeql(ptr noundef %0, i32 noundef 0, ptr noundef nonnull @proxy_v2_magic, i64 noundef 12)
  %.not.i = icmp eq i32 %7, 0
  br i1 %.not.i, label %8, label %is_proxy_v2.exit.thread

8:                                                ; preds = %is_proxy_v2.exit
  %9 = tail call i32 @dissect_proxy_v2(ptr noundef %0, ptr noundef %1, ptr noundef %2, ptr noundef %3)
  %.not = icmp eq i32 %9, 0
  br i1 %.not, label %is_proxy_v2.exit.thread, label %10

10:                                               ; preds = %8
  %11 = tail call i32 @tvb_reported_length_remaining(ptr noundef %0, i32 noundef %9)
  %.not14 = icmp eq i32 %11, 0
  br i1 %.not14, label %is_proxy_v2.exit.thread, label %12

12:                                               ; preds = %10
  %13 = tail call fastcc i32 @dissect_proxy_proxied(ptr noundef %0, ptr noundef %1, ptr noundef %2, i32 noundef %9, ptr noundef %3, ptr noundef null)
  br label %is_proxy_v2.exit.thread

is_proxy_v2.exit.thread:                          ; preds = %4, %is_proxy_v2.exit, %8, %10, %12
  %.0.i16 = phi i1 [ false, %is_proxy_v2.exit ], [ true, %8 ], [ true, %10 ], [ true, %12 ], [ false, %4 ]
  ret i1 %.0.i16
}